; Function Attrs: null_pointer_is_valid sspstrong uwtable
define internal i32 @dissect_e2ap_T_e2nodeComponentRequestPart(ptr noundef %0, i32 noundef %1, ptr noundef %2, ptr noundef %3, i32 noundef %4) #2 {
  %6 = alloca ptr, align 8
  call void @llvm.lifetime.start.p0(i64 8, ptr nonnull %6) #12
  %7 = call i32 @dissect_per_octet_string(ptr noundef %0, i32 noundef %1, ptr noundef %2, ptr noundef %3, i32 noundef %4, i32 noundef -1, i32 noundef -1, i1 noundef zeroext false, ptr noundef nonnull %6)
  %8 = getelementptr inbounds nuw i8, ptr %2, i64 16
  %9 = load ptr, ptr %8, align 8
  %10 = getelementptr inbounds nuw i8, ptr %9, i64 408
  %11 = load ptr, ptr %10, align 8
  %12 = load i32, ptr @proto_e2ap, align 4
  %13 = call ptr @p_get_proto_data(ptr noundef %11, ptr noundef %9, i32 noundef %12, i32 noundef 0)
  %.not.i = icmp eq ptr %13, null
  br i1 %.not.i, label %14, label %e2ap_get_private_data.exit

14:                                               ; preds = %5
  %15 = load ptr, ptr %10, align 8
  %16 = call noalias dereferenceable_or_null(48) ptr @wmem_alloc0(ptr noundef %15, i64 noundef 48) #10
  %17 = load ptr, ptr %10, align 8
  %18 = load i32, ptr @proto_e2ap, align 4
  call void @p_add_proto_data(ptr noundef %17, ptr noundef %9, i32 noundef %18, i32 noundef 0, ptr noundef %16)
  br label %e2ap_get_private_data.exit

e2ap_get_private_data.exit:                       ; preds = %5, %14
  %.0.i = phi ptr [ %13, %5 ], [ %16, %14 ]
  %19 = getelementptr inbounds nuw i8, ptr %.0.i, i64 32
  %20 = load ptr, ptr %19, align 8
  %.not = icmp eq ptr %20, null
  br i1 %.not, label %38, label %21

21:                                               ; preds = %e2ap_get_private_data.exit
  %22 = load ptr, ptr %8, align 8
  %23 = getelementptr inbounds nuw i8, ptr %22, i64 8
  %24 = load ptr, ptr %23, align 8
  call void @col_append_str(ptr noundef %24, i32 noundef 35, ptr noundef nonnull @.str.1896)
  %25 = load ptr, ptr %8, align 8
  %26 = getelementptr inbounds nuw i8, ptr %25, i64 8
  %27 = load ptr, ptr %26, align 8
  call void @col_set_fence(ptr noundef %27, i32 noundef 35)
  %28 = load ptr, ptr %8, align 8
  %29 = getelementptr inbounds nuw i8, ptr %28, i64 8
  %30 = load ptr, ptr %29, align 8
  call void @col_set_writable(ptr noundef %30, i32 noundef 25, i1 noundef zeroext false)
  %31 = load ptr, ptr %19, align 8
  %32 = load ptr, ptr %6, align 8
  %33 = load ptr, ptr %8, align 8
  %34 = call i32 @call_dissector(ptr noundef %31, ptr noundef %32, ptr noundef %33, ptr noundef %3)
  %35 = load ptr, ptr %8, align 8
  %36 = getelementptr inbounds nuw i8, ptr %35, i64 8
  %37 = load ptr, ptr %36, align 8
  call void @col_set_writable(ptr noundef %37, i32 noundef 25, i1 noundef zeroext true)
  br label %38

38:                                               ; preds = %21, %e2ap_get_private_data.exit
  call void @llvm.lifetime.end.p0(i64 8, ptr nonnull %6) #12
  ret i32 %7
}